target datalayout = "e-m:e-p270:32:32-p271:32:32-p272:64:64-i64:64-i128:128-f80:128-n8:16:32:64-S128"
target triple = "x86_64-pc-linux-gnu"

%struct.FIREqualizerContext = type { ptr, ptr, ptr, ptr, ptr, ptr, ptr, ptr, ptr, ptr, ptr, ptr, ptr, ptr, ptr, i32, i32, i32, ptr, ptr, ptr, ptr, ptr, ptr, ptr, ptr, ptr, ptr, ptr, i32, i32, i64, i32, i32, ptr, ptr, ptr, ptr, double, double, i32, i32, i32, i32, i32, ptr, i32, i32, i32, i32, i32, [4096 x %struct.GainEntry] }
%struct.GainEntry = type { double, double }
%struct.OverlapIndex = type { i32, i32 }

; Function Attrs: nounwind uwtable
define internal void @fast_convolute_nonlinear(ptr noalias noundef %0, ptr noalias noundef %1, ptr noalias noundef %2, ptr noalias noundef %3, ptr noalias noundef %4, i32 noundef %5) #1 {
  %7 = alloca ptr, align 8
  %8 = alloca ptr, align 8
  %9 = alloca ptr, align 8
  %10 = alloca ptr, align 8
  %11 = alloca ptr, align 8
  %12 = alloca i32, align 4
  %13 = alloca ptr, align 8
  %14 = alloca ptr, align 8
  %15 = alloca ptr, align 8
  %16 = alloca i32, align 4
  %17 = alloca float, align 4
  %18 = alloca float, align 4
  store ptr %0, ptr %7, align 8, !tbaa !22
  store ptr %1, ptr %8, align 8, !tbaa !99
  store ptr %2, ptr %9, align 8, !tbaa !99
  store ptr %3, ptr %10, align 8, !tbaa !102
  store ptr %4, ptr %11, align 8, !tbaa !99
  store i32 %5, ptr %12, align 4, !tbaa !25
  %19 = load i32, ptr %12, align 4, !tbaa !25
  %20 = load ptr, ptr %7, align 8, !tbaa !22
  %21 = getelementptr inbounds nuw %struct.FIREqualizerContext, ptr %20, i32 0, i32 30
  %22 = load i32, ptr %21, align 4, !tbaa !79
  %23 = icmp sle i32 %19, %22
  br i1 %23, label %24, label %202

24:                                               ; preds = %6
  call void @llvm.lifetime.start.p0(i64 8, ptr %13) #12
  %25 = load ptr, ptr %9, align 8, !tbaa !99
  %26 = load ptr, ptr %10, align 8, !tbaa !102
  %27 = getelementptr inbounds nuw %struct.OverlapIndex, ptr %26, i32 0, i32 0
  %28 = load i32, ptr %27, align 4, !tbaa !103
  %29 = load ptr, ptr %7, align 8, !tbaa !22
  %30 = getelementptr inbounds nuw %struct.FIREqualizerContext, ptr %29, i32 0, i32 16
  %31 = load i32, ptr %30, align 4, !tbaa !53
  %32 = mul nsw i32 %28, %31
  %33 = sext i32 %32 to i64
  %34 = getelementptr inbounds float, ptr %25, i64 %33
  store ptr %34, ptr %13, align 8, !tbaa !99
  call void @llvm.lifetime.start.p0(i64 8, ptr %14) #12
  %35 = load ptr, ptr %9, align 8, !tbaa !99
  %36 = load ptr, ptr %10, align 8, !tbaa !102
  %37 = getelementptr inbounds nuw %struct.OverlapIndex, ptr %36, i32 0, i32 0
  %38 = load i32, ptr %37, align 4, !tbaa !103
  %39 = icmp ne i32 %38, 0
  %40 = xor i1 %39, true
  %41 = zext i1 %40 to i32
  %42 = load ptr, ptr %7, align 8, !tbaa !22
  %43 = getelementptr inbounds nuw %struct.FIREqualizerContext, ptr %42, i32 0, i32 16
  %44 = load i32, ptr %43, align 4, !tbaa !53
  %45 = mul nsw i32 %41, %44
  %46 = sext i32 %45 to i64
  %47 = getelementptr inbounds float, ptr %35, i64 %46
  %48 = load ptr, ptr %10, align 8, !tbaa !102
  %49 = getelementptr inbounds nuw %struct.OverlapIndex, ptr %48, i32 0, i32 1
  %50 = load i32, ptr %49, align 4, !tbaa !105
  %51 = sext i32 %50 to i64
  %52 = getelementptr inbounds float, ptr %47, i64 %51
  store ptr %52, ptr %14, align 8, !tbaa !99
  call void @llvm.lifetime.start.p0(i64 8, ptr %15) #12
  %53 = load ptr, ptr %7, align 8, !tbaa !22
  %54 = getelementptr inbounds nuw %struct.FIREqualizerContext, ptr %53, i32 0, i32 24
  %55 = load ptr, ptr %54, align 8, !tbaa !94
  store ptr %55, ptr %15, align 8, !tbaa !99
  call void @llvm.lifetime.start.p0(i64 4, ptr %16) #12
  %56 = load ptr, ptr %13, align 8, !tbaa !99
  %57 = load ptr, ptr %11, align 8, !tbaa !99
  %58 = load i32, ptr %12, align 4, !tbaa !25
  %59 = sext i32 %58 to i64
  %60 = mul i64 %59, 4
  call void @llvm.memcpy.p0.p0.i64(ptr align 4 %56, ptr align 4 %57, i64 %60, i1 false)
  %61 = load ptr, ptr %13, align 8, !tbaa !99
  %62 = load i32, ptr %12, align 4, !tbaa !25
  %63 = sext i32 %62 to i64
  %64 = getelementptr inbounds float, ptr %61, i64 %63
  %65 = load ptr, ptr %7, align 8, !tbaa !22
  %66 = getelementptr inbounds nuw %struct.FIREqualizerContext, ptr %65, i32 0, i32 16
  %67 = load i32, ptr %66, align 4, !tbaa !53
  %68 = load i32, ptr %12, align 4, !tbaa !25
  %69 = sub nsw i32 %67, %68
  %70 = sext i32 %69 to i64
  %71 = mul i64 %70, 4
  call void @llvm.memset.p0.i64(ptr align 4 %64, i8 0, i64 %71, i1 false)
  %72 = load ptr, ptr %7, align 8, !tbaa !22
  %73 = getelementptr inbounds nuw %struct.FIREqualizerContext, ptr %72, i32 0, i32 6
  %74 = load ptr, ptr %73, align 8, !tbaa !115
  %75 = load ptr, ptr %7, align 8, !tbaa !22
  %76 = getelementptr inbounds nuw %struct.FIREqualizerContext, ptr %75, i32 0, i32 5
  %77 = load ptr, ptr %76, align 8, !tbaa !116
  %78 = load ptr, ptr %15, align 8, !tbaa !99
  %79 = load ptr, ptr %13, align 8, !tbaa !99
  call void %74(ptr noundef %77, ptr noundef %78, ptr noundef %79, i64 noundef 4)
  store i32 0, ptr %16, align 4, !tbaa !25
  br label %80

80:                                               ; preds = %148, %24
  %81 = load i32, ptr %16, align 4, !tbaa !25
  %82 = load ptr, ptr %7, align 8, !tbaa !22
  %83 = getelementptr inbounds nuw %struct.FIREqualizerContext, ptr %82, i32 0, i32 16
  %84 = load i32, ptr %83, align 4, !tbaa !53
  %85 = add nsw i32 %84, 2
  %86 = icmp slt i32 %81, %85
  br i1 %86, label %87, label %151

87:                                               ; preds = %80
  call void @llvm.lifetime.start.p0(i64 4, ptr %17) #12
  call void @llvm.lifetime.start.p0(i64 4, ptr %18) #12
  %88 = load ptr, ptr %15, align 8, !tbaa !99
  %89 = load i32, ptr %16, align 4, !tbaa !25
  %90 = sext i32 %89 to i64
  %91 = getelementptr inbounds float, ptr %88, i64 %90
  %92 = load float, ptr %91, align 4, !tbaa !75
  %93 = load ptr, ptr %8, align 8, !tbaa !99
  %94 = load i32, ptr %16, align 4, !tbaa !25
  %95 = sext i32 %94 to i64
  %96 = getelementptr inbounds float, ptr %93, i64 %95
  %97 = load float, ptr %96, align 4, !tbaa !75
  %98 = load ptr, ptr %15, align 8, !tbaa !99
  %99 = load i32, ptr %16, align 4, !tbaa !25
  %100 = add nsw i32 %99, 1
  %101 = sext i32 %100 to i64
  %102 = getelementptr inbounds float, ptr %98, i64 %101
  %103 = load float, ptr %102, align 4, !tbaa !75
  %104 = load ptr, ptr %8, align 8, !tbaa !99
  %105 = load i32, ptr %16, align 4, !tbaa !25
  %106 = add nsw i32 %105, 1
  %107 = sext i32 %106 to i64
  %108 = getelementptr inbounds float, ptr %104, i64 %107
  %109 = load float, ptr %108, align 4, !tbaa !75
  %110 = fmul nsz float %103, %109
  %111 = fneg nsz float %110
  %112 = call nsz float @llvm.fmuladd.f32(float %92, float %97, float %111)
  store float %112, ptr %17, align 4, !tbaa !75
  %113 = load ptr, ptr %15, align 8, !tbaa !99
  %114 = load i32, ptr %16, align 4, !tbaa !25
  %115 = sext i32 %114 to i64
  %116 = getelementptr inbounds float, ptr %113, i64 %115
  %117 = load float, ptr %116, align 4, !tbaa !75
  %118 = load ptr, ptr %8, align 8, !tbaa !99
  %119 = load i32, ptr %16, align 4, !tbaa !25
  %120 = add nsw i32 %119, 1
  %121 = sext i32 %120 to i64
  %122 = getelementptr inbounds float, ptr %118, i64 %121
  %123 = load float, ptr %122, align 4, !tbaa !75
  %124 = load ptr, ptr %15, align 8, !tbaa !99
  %125 = load i32, ptr %16, align 4, !tbaa !25
  %126 = add nsw i32 %125, 1
  %127 = sext i32 %126 to i64
  %128 = getelementptr inbounds float, ptr %124, i64 %127
  %129 = load float, ptr %128, align 4, !tbaa !75
  %130 = load ptr, ptr %8, align 8, !tbaa !99
  %131 = load i32, ptr %16, align 4, !tbaa !25
  %132 = sext i32 %131 to i64
  %133 = getelementptr inbounds float, ptr %130, i64 %132
  %134 = load float, ptr %133, align 4, !tbaa !75
  %135 = fmul nsz float %129, %134
  %136 = call nsz float @llvm.fmuladd.f32(float %117, float %123, float %135)
  store float %136, ptr %18, align 4, !tbaa !75
  %137 = load float, ptr %17, align 4, !tbaa !75
  %138 = load ptr, ptr %15, align 8, !tbaa !99
  %139 = load i32, ptr %16, align 4, !tbaa !25
  %140 = sext i32 %139 to i64
  %141 = getelementptr inbounds float, ptr %138, i64 %140
  store float %137, ptr %141, align 4, !tbaa !75
  %142 = load float, ptr %18, align 4, !tbaa !75
  %143 = load ptr, ptr %15, align 8, !tbaa !99
  %144 = load i32, ptr %16, align 4, !tbaa !25
  %145 = add nsw i32 %144, 1
  %146 = sext i32 %145 to i64
  %147 = getelementptr inbounds float, ptr %143, i64 %146
  store float %142, ptr %147, align 4, !tbaa !75
  call void @llvm.lifetime.end.p0(i64 4, ptr %18) #12
  call void @llvm.lifetime.end.p0(i64 4, ptr %17) #12
  br label %148

148:                                              ; preds = %87
  %149 = load i32, ptr %16, align 4, !tbaa !25
  %150 = add nsw i32 %149, 2
  store i32 %150, ptr %16, align 4, !tbaa !25
  br label %80, !llvm.loop !122

151:                                              ; preds = %80
  %152 = load ptr, ptr %7, align 8, !tbaa !22
  %153 = getelementptr inbounds nuw %struct.FIREqualizerContext, ptr %152, i32 0, i32 8
  %154 = load ptr, ptr %153, align 8, !tbaa !118
  %155 = load ptr, ptr %7, align 8, !tbaa !22
  %156 = getelementptr inbounds nuw %struct.FIREqualizerContext, ptr %155, i32 0, i32 7
  %157 = load ptr, ptr %156, align 8, !tbaa !119
  %158 = load ptr, ptr %13, align 8, !tbaa !99
  %159 = load ptr, ptr %15, align 8, !tbaa !99
  call void %154(ptr noundef %157, ptr noundef %158, ptr noundef %159, i64 noundef 8)
  store i32 0, ptr %16, align 4, !tbaa !25
  br label %160

160:                                              ; preds = %182, %151
  %161 = load i32, ptr %16, align 4, !tbaa !25
  %162 = load ptr, ptr %7, align 8, !tbaa !22
  %163 = getelementptr inbounds nuw %struct.FIREqualizerContext, ptr %162, i32 0, i32 16
  %164 = load i32, ptr %163, align 4, !tbaa !53
  %165 = load ptr, ptr %10, align 8, !tbaa !102
  %166 = getelementptr inbounds nuw %struct.OverlapIndex, ptr %165, i32 0, i32 1
  %167 = load i32, ptr %166, align 4, !tbaa !105
  %168 = sub nsw i32 %164, %167
  %169 = icmp slt i32 %161, %168
  br i1 %169, label %170, label %185

170:                                              ; preds = %160
  %171 = load ptr, ptr %14, align 8, !tbaa !99
  %172 = load i32, ptr %16, align 4, !tbaa !25
  %173 = sext i32 %172 to i64
  %174 = getelementptr inbounds float, ptr %171, i64 %173
  %175 = load float, ptr %174, align 4, !tbaa !75
  %176 = load ptr, ptr %13, align 8, !tbaa !99
  %177 = load i32, ptr %16, align 4, !tbaa !25
  %178 = sext i32 %177 to i64
  %179 = getelementptr inbounds float, ptr %176, i64 %178
  %180 = load float, ptr %179, align 4, !tbaa !75
  %181 = fadd nsz float %180, %175
  store float %181, ptr %179, align 4, !tbaa !75
  br label %182

182:                                              ; preds = %170
  %183 = load i32, ptr %16, align 4, !tbaa !25
  %184 = add nsw i32 %183, 1
  store i32 %184, ptr %16, align 4, !tbaa !25
  br label %160, !llvm.loop !123

185:                                              ; preds = %160
  %186 = load ptr, ptr %11, align 8, !tbaa !99
  %187 = load ptr, ptr %13, align 8, !tbaa !99
  %188 = load i32, ptr %12, align 4, !tbaa !25
  %189 = sext i32 %188 to i64
  %190 = mul i64 %189, 4
  call void @llvm.memcpy.p0.p0.i64(ptr align 4 %186, ptr align 4 %187, i64 %190, i1 false)
  %191 = load ptr, ptr %10, align 8, !tbaa !102
  %192 = getelementptr inbounds nuw %struct.OverlapIndex, ptr %191, i32 0, i32 0
  %193 = load i32, ptr %192, align 4, !tbaa !103
  %194 = icmp ne i32 %193, 0
  %195 = xor i1 %194, true
  %196 = zext i1 %195 to i32
  %197 = load ptr, ptr %10, align 8, !tbaa !102
  %198 = getelementptr inbounds nuw %struct.OverlapIndex, ptr %197, i32 0, i32 0
  store i32 %196, ptr %198, align 4, !tbaa !103
  %199 = load i32, ptr %12, align 4, !tbaa !25
  %200 = load ptr, ptr %10, align 8, !tbaa !102
  %201 = getelementptr inbounds nuw %struct.OverlapIndex, ptr %200, i32 0, i32 1
  store i32 %199, ptr %201, align 4, !tbaa !105
  call void @llvm.lifetime.end.p0(i64 4, ptr %16) #12
  call void @llvm.lifetime.end.p0(i64 8, ptr %15) #12
  call void @llvm.lifetime.end.p0(i64 8, ptr %14) #12
  call void @llvm.lifetime.end.p0(i64 8, ptr %13) #12
  br label %251

202:                                              ; preds = %6
  br label %203

203:                                              ; preds = %210, %202
  %204 = load i32, ptr %12, align 4, !tbaa !25
  %205 = load ptr, ptr %7, align 8, !tbaa !22
  %206 = getelementptr inbounds nuw %struct.FIREqualizerContext, ptr %205, i32 0, i32 30
  %207 = load i32, ptr %206, align 4, !tbaa !79
  %208 = mul nsw i32 %207, 2
  %209 = icmp sgt i32 %204, %208
  br i1 %209, label %210, label %230

210:                                              ; preds = %203
  %211 = load ptr, ptr %7, align 8, !tbaa !22
  %212 = load ptr, ptr %8, align 8, !tbaa !99
  %213 = load ptr, ptr %9, align 8, !tbaa !99
  %214 = load ptr, ptr %10, align 8, !tbaa !102
  %215 = load ptr, ptr %11, align 8, !tbaa !99
  %216 = load ptr, ptr %7, align 8, !tbaa !22
  %217 = getelementptr inbounds nuw %struct.FIREqualizerContext, ptr %216, i32 0, i32 30
  %218 = load i32, ptr %217, align 4, !tbaa !79
  call void @fast_convolute_nonlinear(ptr noundef %211, ptr noundef %212, ptr noundef %213, ptr noundef %214, ptr noundef %215, i32 noundef %218)
  %219 = load ptr, ptr %7, align 8, !tbaa !22
  %220 = getelementptr inbounds nuw %struct.FIREqualizerContext, ptr %219, i32 0, i32 30
  %221 = load i32, ptr %220, align 4, !tbaa !79
  %222 = load ptr, ptr %11, align 8, !tbaa !99
  %223 = sext i32 %221 to i64
  %224 = getelementptr inbounds float, ptr %222, i64 %223
  store ptr %224, ptr %11, align 8, !tbaa !99
  %225 = load ptr, ptr %7, align 8, !tbaa !22
  %226 = getelementptr inbounds nuw %struct.FIREqualizerContext, ptr %225, i32 0, i32 30
  %227 = load i32, ptr %226, align 4, !tbaa !79
  %228 = load i32, ptr %12, align 4, !tbaa !25
  %229 = sub nsw i32 %228, %227
  store i32 %229, ptr %12, align 4, !tbaa !25
  br label %203, !llvm.loop !124

230:                                              ; preds = %203
  %231 = load ptr, ptr %7, align 8, !tbaa !22
  %232 = load ptr, ptr %8, align 8, !tbaa !99
  %233 = load ptr, ptr %9, align 8, !tbaa !99
  %234 = load ptr, ptr %10, align 8, !tbaa !102
  %235 = load ptr, ptr %11, align 8, !tbaa !99
  %236 = load i32, ptr %12, align 4, !tbaa !25
  %237 = sdiv i32 %236, 2
  call void @fast_convolute_nonlinear(ptr noundef %231, ptr noundef %232, ptr noundef %233, ptr noundef %234, ptr noundef %235, i32 noundef %237)
  %238 = load ptr, ptr %7, align 8, !tbaa !22
  %239 = load ptr, ptr %8, align 8, !tbaa !99
  %240 = load ptr, ptr %9, align 8, !tbaa !99
  %241 = load ptr, ptr %10, align 8, !tbaa !102
  %242 = load ptr, ptr %11, align 8, !tbaa !99
  %243 = load i32, ptr %12, align 4, !tbaa !25
  %244 = sdiv i32 %243, 2
  %245 = sext i32 %244 to i64
  %246 = getelementptr inbounds float, ptr %242, i64 %245
  %247 = load i32, ptr %12, align 4, !tbaa !25
  %248 = load i32, ptr %12, align 4, !tbaa !25
  %249 = sdiv i32 %248, 2
  %250 = sub nsw i32 %247, %249
  call void @fast_convolute_nonlinear(ptr noundef %238, ptr noundef %239, ptr noundef %240, ptr noundef %241, ptr noundef %246, i32 noundef %250)
  br label %251

251:                                              ; preds = %230, %185
  ret void
}