; Function Attrs: nounwind uwtable
define internal fastcc void @fast_convolute_nonlinear(ptr noalias noundef %0, ptr noalias noundef %1, ptr noalias noundef %2, ptr noalias noundef %3, ptr noalias noundef %4, i32 noundef %5) unnamed_addr #1 {
  %7 = getelementptr inbounds nuw i8, ptr %0, i64 228
  %8 = load i32, ptr %7, align 4, !tbaa !72
  %.not104 = icmp sgt i32 %5, %8
  br i1 %.not104, label %.preheader, label %tailrecurse._crit_edge

.preheader:                                       ; preds = %6, %tailrecurse
  %9 = phi i32 [ %81, %tailrecurse ], [ %8, %6 ]
  %.tr100106 = phi i32 [ %80, %tailrecurse ], [ %5, %6 ]
  %.tr99105 = phi ptr [ %79, %tailrecurse ], [ %4, %6 ]
  %10 = shl nsw i32 %9, 1
  %11 = icmp sgt i32 %.tr100106, %10
  br i1 %11, label %.lr.ph, label %tailrecurse

tailrecurse._crit_edge:                           ; preds = %tailrecurse, %6
  %.tr99.lcssa = phi ptr [ %4, %6 ], [ %79, %tailrecurse ]
  %.tr100.lcssa = phi i32 [ %5, %6 ], [ %80, %tailrecurse ]
  %12 = load i32, ptr %3, align 4, !tbaa !91
  %13 = getelementptr inbounds nuw i8, ptr %0, i64 124
  %14 = load i32, ptr %13, align 4, !tbaa !47
  %15 = mul nsw i32 %14, %12
  %16 = sext i32 %15 to i64
  %17 = getelementptr inbounds float, ptr %2, i64 %16
  %.not94 = icmp eq i32 %12, 0
  %18 = select i1 %.not94, i32 %14, i32 0
  %19 = sext i32 %18 to i64
  %20 = getelementptr inbounds float, ptr %2, i64 %19
  %21 = getelementptr inbounds nuw i8, ptr %3, i64 4
  %22 = load i32, ptr %21, align 4, !tbaa !93
  %23 = sext i32 %22 to i64
  %24 = getelementptr inbounds float, ptr %20, i64 %23
  %25 = getelementptr inbounds nuw i8, ptr %0, i64 184
  %26 = load ptr, ptr %25, align 8, !tbaa !86
  %27 = sext i32 %.tr100.lcssa to i64
  %28 = shl nsw i64 %27, 2
  tail call void @llvm.memcpy.p0.p0.i64(ptr align 4 %17, ptr align 4 %.tr99.lcssa, i64 %28, i1 false)
  %29 = getelementptr inbounds float, ptr %17, i64 %27
  %30 = sub nsw i32 %14, %.tr100.lcssa
  %31 = sext i32 %30 to i64
  %32 = shl nsw i64 %31, 2
  tail call void @llvm.memset.p0.i64(ptr align 4 %29, i8 0, i64 %32, i1 false)
  %33 = getelementptr inbounds nuw i8, ptr %0, i64 48
  %34 = load ptr, ptr %33, align 8, !tbaa !103
  %35 = getelementptr inbounds nuw i8, ptr %0, i64 40
  %36 = load ptr, ptr %35, align 8, !tbaa !104
  tail call void %34(ptr noundef %36, ptr noundef %26, ptr noundef %17, i64 noundef 4) #14
  %37 = load i32, ptr %13, align 4, !tbaa !47
  %38 = icmp sgt i32 %37, -2
  br i1 %38, label %.lr.ph111.preheader, label %._crit_edge112

.lr.ph111.preheader:                              ; preds = %tailrecurse._crit_edge
  %39 = sext i32 %37 to i64
  br label %.lr.ph111

.lr.ph111:                                        ; preds = %.lr.ph111.preheader, %.lr.ph111
  %indvars.iv = phi i64 [ 0, %.lr.ph111.preheader ], [ %indvars.iv.next, %.lr.ph111 ]
  %40 = getelementptr inbounds nuw float, ptr %26, i64 %indvars.iv
  %41 = load float, ptr %40, align 4, !tbaa !67
  %42 = getelementptr inbounds nuw float, ptr %1, i64 %indvars.iv
  %43 = load float, ptr %42, align 4, !tbaa !67
  %44 = or disjoint i64 %indvars.iv, 1
  %45 = getelementptr inbounds nuw float, ptr %26, i64 %44
  %46 = load float, ptr %45, align 4, !tbaa !67
  %47 = getelementptr inbounds nuw float, ptr %1, i64 %44
  %48 = load float, ptr %47, align 4, !tbaa !67
  %49 = fneg nsz float %48
  %50 = fmul nsz float %46, %49
  %51 = tail call nsz float @llvm.fmuladd.f32(float %41, float %43, float %50)
  %52 = fmul nsz float %43, %46
  %53 = tail call nsz float @llvm.fmuladd.f32(float %41, float %48, float %52)
  store float %51, ptr %40, align 4, !tbaa !67
  store float %53, ptr %45, align 4, !tbaa !67
  %indvars.iv.next = add nuw nsw i64 %indvars.iv, 2
  %54 = icmp slt i64 %indvars.iv, %39
  br i1 %54, label %.lr.ph111, label %._crit_edge112, !llvm.loop !110

._crit_edge112:                                   ; preds = %.lr.ph111, %tailrecurse._crit_edge
  %55 = getelementptr inbounds nuw i8, ptr %0, i64 64
  %56 = load ptr, ptr %55, align 8, !tbaa !106
  %57 = getelementptr inbounds nuw i8, ptr %0, i64 56
  %58 = load ptr, ptr %57, align 8, !tbaa !107
  tail call void %56(ptr noundef %58, ptr noundef %17, ptr noundef %26, i64 noundef 8) #14
  %59 = load i32, ptr %13, align 4, !tbaa !47
  %60 = load i32, ptr %21, align 4, !tbaa !93
  %61 = sub nsw i32 %59, %60
  %62 = icmp sgt i32 %61, 0
  br i1 %62, label %.lr.ph115.preheader, label %._crit_edge116

.lr.ph115.preheader:                              ; preds = %._crit_edge112
  %wide.trip.count = zext nneg i32 %61 to i64
  br label %.lr.ph115

.lr.ph115:                                        ; preds = %.lr.ph115.preheader, %.lr.ph115
  %indvars.iv121 = phi i64 [ 0, %.lr.ph115.preheader ], [ %indvars.iv.next122, %.lr.ph115 ]
  %63 = getelementptr inbounds nuw float, ptr %24, i64 %indvars.iv121
  %64 = load float, ptr %63, align 4, !tbaa !67
  %65 = getelementptr inbounds nuw float, ptr %17, i64 %indvars.iv121
  %66 = load float, ptr %65, align 4, !tbaa !67
  %67 = fadd nsz float %64, %66
  store float %67, ptr %65, align 4, !tbaa !67
  %indvars.iv.next122 = add nuw nsw i64 %indvars.iv121, 1
  %exitcond.not = icmp eq i64 %indvars.iv.next122, %wide.trip.count
  br i1 %exitcond.not, label %._crit_edge116, label %.lr.ph115, !llvm.loop !111

._crit_edge116:                                   ; preds = %.lr.ph115, %._crit_edge112
  tail call void @llvm.memcpy.p0.p0.i64(ptr align 4 %.tr99.lcssa, ptr align 4 %17, i64 %28, i1 false)
  %68 = load i32, ptr %3, align 4, !tbaa !91
  %.not95 = icmp eq i32 %68, 0
  %69 = zext i1 %.not95 to i32
  store i32 %69, ptr %3, align 4, !tbaa !91
  store i32 %.tr100.lcssa, ptr %21, align 4, !tbaa !93
  ret void

.lr.ph:                                           ; preds = %.preheader, %.lr.ph
  %70 = phi i32 [ %71, %.lr.ph ], [ %9, %.preheader ]
  %.0102 = phi ptr [ %73, %.lr.ph ], [ %.tr99105, %.preheader ]
  %.090101 = phi i32 [ %74, %.lr.ph ], [ %.tr100106, %.preheader ]
  tail call fastcc void @fast_convolute_nonlinear(ptr noundef nonnull %0, ptr noundef %1, ptr noundef %2, ptr noundef %3, ptr noundef %.0102, i32 noundef %70)
  %71 = load i32, ptr %7, align 4, !tbaa !72
  %72 = sext i32 %71 to i64
  %73 = getelementptr inbounds float, ptr %.0102, i64 %72
  %74 = sub nsw i32 %.090101, %71
  %75 = shl nsw i32 %71, 1
  %76 = icmp sgt i32 %74, %75
  br i1 %76, label %.lr.ph, label %tailrecurse, !llvm.loop !112

tailrecurse:                                      ; preds = %.lr.ph, %.preheader
  %.090.lcssa = phi i32 [ %.tr100106, %.preheader ], [ %74, %.lr.ph ]
  %.0.lcssa = phi ptr [ %.tr99105, %.preheader ], [ %73, %.lr.ph ]
  %77 = sdiv i32 %.090.lcssa, 2
  tail call fastcc void @fast_convolute_nonlinear(ptr noundef nonnull %0, ptr noundef %1, ptr noundef %2, ptr noundef %3, ptr noundef %.0.lcssa, i32 noundef %77)
  %78 = sext i32 %77 to i64
  %79 = getelementptr inbounds float, ptr %.0.lcssa, i64 %78
  %80 = sub nsw i32 %.090.lcssa, %77
  %81 = load i32, ptr %7, align 4, !tbaa !72
  %.not = icmp sgt i32 %80, %81
  br i1 %.not, label %.preheader, label %tailrecurse._crit_edge
}